; ModuleID = 'source-C-CXX/61/1424.c'
source_filename = "source-C-CXX/61/1424.c"
target datalayout = "e-m:e-p270:32:32-p271:32:32-p272:64:64-i64:64-f80:128-n8:16:32:64-S128"
target triple = "x86_64-pc-linux-gnu"

%struct._IO_FILE = type { i32, i8*, i8*, i8*, i8*, i8*, i8*, i8*, i8*, i8*, i8*, i8*, %struct._IO_marker*, %struct._IO_FILE*, i32, i32, i64, i16, i8, [1 x i8], i8*, i64, %struct._IO_codecvt*, %struct._IO_wide_data*, %struct._IO_FILE*, i8*, i64, i32, [20 x i8] }
%struct._IO_marker = type opaque
%struct._IO_codecvt = type opaque
%struct._IO_wide_data = type opaque

@.str = private unnamed_addr constant [3 x i8] c"%s\00", align 1
@stdin = external local_unnamed_addr global %struct._IO_FILE*, align 8

; Function Attrs: nounwind sspstrong uwtable
define dso_local i32 @main() local_unnamed_addr #0 {
  %1 = tail call noalias align 16 dereferenceable_or_null(100) i8* @malloc(i64 100) #4
  br label %2

2:                                                ; preds = %11, %0
  %3 = phi i32 [ %16, %11 ], [ 0, %0 ]
  %4 = phi i32 [ %12, %11 ], [ undef, %0 ]
  %5 = icmp eq i32 %4, 0
  br label %6

6:                                                ; preds = %2, %10
  %7 = load %struct._IO_FILE*, %struct._IO_FILE** @stdin, align 8, !tbaa !5
  %8 = tail call i32 @getc(%struct._IO_FILE* %7) #4
  %9 = shl i32 %8, 24
  switch i32 %9, label %11 [
    i32 167772160, label %17
    i32 536870912, label %10
  ]

10:                                               ; preds = %6
  br i1 %5, label %11, label %6, !llvm.loop !9

11:                                               ; preds = %10, %6
  %12 = phi i32 [ 0, %6 ], [ 1, %10 ]
  %13 = trunc i32 %8 to i8
  %14 = zext i32 %3 to i64
  %15 = getelementptr inbounds i8, i8* %1, i64 %14
  store i8 %13, i8* %15, align 1, !tbaa !11
  %16 = add nuw nsw i32 %3, 1
  br label %2, !llvm.loop !9

17:                                               ; preds = %6
  %18 = zext i32 %3 to i64
  %19 = getelementptr inbounds i8, i8* %1, i64 %18
  store i8 0, i8* %19, align 1, !tbaa !11
  %20 = tail call i32 (i8*, ...) @printf(i8* nonnull dereferenceable(1) getelementptr inbounds ([3 x i8], [3 x i8]* @.str, i64 0, i64 0), i8* %1)
  tail call void @free(i8* %1) #4
  ret i32 0
}

; Function Attrs: inaccessiblememonly mustprogress nofree nounwind willreturn
declare noalias noundef align 16 i8* @malloc(i64 noundef) local_unnamed_addr #1

; Function Attrs: nofree nounwind
declare noundef i32 @printf(i8* nocapture noundef readonly, ...) local_unnamed_addr #2

; Function Attrs: inaccessiblemem_or_argmemonly mustprogress nounwind willreturn
declare void @free(i8* nocapture noundef) local_unnamed_addr #3

; Function Attrs: nofree nounwind
declare noundef i32 @getc(%struct._IO_FILE* nocapture noundef) local_unnamed_addr #2


!llvm.module.flags = !{!0, !1, !2, !3}
!llvm.ident = !{!4}

!0 = !{i32 1, !"wchar_size", i32 4}
!1 = !{i32 7, !"PIC Level", i32 2}
!2 = !{i32 7, !"PIE Level", i32 2}
!3 = !{i32 7, !"uwtable", i32 1}
!4 = !{!"clang version 13.0.0"}
!5 = !{!6, !6, i64 0}
!6 = !{!"any pointer", !7, i64 0}
!7 = !{!"omnipotent char", !8, i64 0}
!8 = !{!"Simple C/C++ TBAA"}
!9 = distinct !{!9, !10}
!10 = !{!"llvm.loop.mustprogress"}
!11 = !{!7, !7, i64 0}
